target datalayout = "e-m:e-p270:32:32-p271:32:32-p272:64:64-i64:64-i128:128-f80:128-n8:16:32:64-S128"
target triple = "x86_64-pc-linux-gnu"

%struct.packed_commit_list = type { ptr, i64, i64 }
%struct.compute_generation_info = type { ptr, ptr, ptr, i32, ptr, ptr, ptr }

@.str.54 = private unnamed_addr constant [30 x i8] c"commitgraph.generationversion\00", align 1

; Function Attrs: nounwind uwtable
define internal i32 @get_configured_generation_version(ptr noundef %0) #0 {
  %2 = alloca ptr, align 8
  %3 = alloca i32, align 4
  store ptr %0, ptr %2, align 8, !tbaa !8
  call void @llvm.lifetime.start.p0(i64 4, ptr %3) #12
  store i32 2, ptr %3, align 4, !tbaa !4
  %4 = load ptr, ptr %2, align 8, !tbaa !8
  %5 = call i32 @repo_config_get_int(ptr noundef %4, ptr noundef @.str.54, ptr noundef %3)
  %6 = load i32, ptr %3, align 4, !tbaa !4
  call void @llvm.lifetime.end.p0(i64 4, ptr %3) #12
  ret i32 %6
}

; Function Attrs: nounwind uwtable
define dso_local void @ensure_generations_valid(ptr noundef %0, ptr noundef %1, i64 noundef %2) #0 {
  %4 = alloca ptr, align 8
  %5 = alloca ptr, align 8
  %6 = alloca i64, align 8
  %7 = alloca i32, align 4
  %8 = alloca %struct.packed_commit_list, align 8
  %9 = alloca %struct.compute_generation_info, align 8
  store ptr %0, ptr %4, align 8, !tbaa !8
  store ptr %1, ptr %5, align 8, !tbaa !165
  store i64 %2, ptr %6, align 8, !tbaa !73
  call void @llvm.lifetime.start.p0(i64 4, ptr %7) #12
  %10 = load ptr, ptr %4, align 8, !tbaa !8
  %11 = call i32 @get_configured_generation_version(ptr noundef %10)
  store i32 %11, ptr %7, align 4, !tbaa !4
  call void @llvm.lifetime.start.p0(i64 24, ptr %8) #12
  %12 = getelementptr inbounds nuw %struct.packed_commit_list, ptr %8, i32 0, i32 0
  %13 = load ptr, ptr %5, align 8, !tbaa !165
  store ptr %13, ptr %12, align 8, !tbaa !167
  %14 = getelementptr inbounds nuw %struct.packed_commit_list, ptr %8, i32 0, i32 1
  %15 = load i64, ptr %6, align 8, !tbaa !73
  store i64 %15, ptr %14, align 8, !tbaa !169
  %16 = getelementptr inbounds nuw %struct.packed_commit_list, ptr %8, i32 0, i32 2
  %17 = load i64, ptr %6, align 8, !tbaa !73
  store i64 %17, ptr %16, align 8, !tbaa !170
  call void @llvm.lifetime.start.p0(i64 56, ptr %9) #12
  %18 = getelementptr inbounds nuw %struct.compute_generation_info, ptr %9, i32 0, i32 0
  %19 = load ptr, ptr %4, align 8, !tbaa !8
  store ptr %19, ptr %18, align 8, !tbaa !171
  %20 = getelementptr inbounds nuw %struct.compute_generation_info, ptr %9, i32 0, i32 1
  store ptr %8, ptr %20, align 8, !tbaa !174
  %21 = getelementptr inbounds nuw %struct.compute_generation_info, ptr %9, i32 0, i32 2
  store ptr null, ptr %21, align 8, !tbaa !175
  %22 = getelementptr inbounds nuw %struct.compute_generation_info, ptr %9, i32 0, i32 3
  store i32 0, ptr %22, align 8, !tbaa !176
  %23 = getelementptr i8, ptr %9, i64 28
  call void @llvm.memset.p0.i64(ptr align 4 %23, i8 0, i64 4, i1 false)
  %24 = getelementptr inbounds nuw %struct.compute_generation_info, ptr %9, i32 0, i32 4
  store ptr @get_generation_from_graph_data, ptr %24, align 8, !tbaa !177
  %25 = getelementptr inbounds nuw %struct.compute_generation_info, ptr %9, i32 0, i32 5
  store ptr @set_generation_in_graph_data, ptr %25, align 8, !tbaa !178
  %26 = getelementptr inbounds nuw %struct.compute_generation_info, ptr %9, i32 0, i32 6
  store ptr null, ptr %26, align 8, !tbaa !179
  %27 = load i32, ptr %7, align 4, !tbaa !4
  call void @compute_reachable_generation_numbers(ptr noundef %9, i32 noundef %27)
  call void @llvm.lifetime.end.p0(i64 56, ptr %9) #12
  call void @llvm.lifetime.end.p0(i64 24, ptr %8) #12
  call void @llvm.lifetime.end.p0(i64 4, ptr %7) #12
  ret void
}