; Function Attrs: nounwind uwtable
define dso_local void @ensure_generations_valid(ptr noundef %0, ptr noundef %1, i64 noundef %2) local_unnamed_addr #0 {
  %4 = alloca i32, align 4
  %5 = alloca %struct.packed_commit_list, align 8
  %6 = alloca %struct.compute_generation_info, align 8
  call void @llvm.lifetime.start.p0(i64 4, ptr nonnull %4) #24
  store i32 2, ptr %4, align 4, !tbaa !47
  %7 = call i32 @repo_config_get_int(ptr noundef %0, ptr noundef nonnull @.str.54, ptr noundef nonnull %4) #24
  %8 = load i32, ptr %4, align 4, !tbaa !47
  call void @llvm.lifetime.end.p0(i64 4, ptr nonnull %4) #24
  call void @llvm.lifetime.start.p0(i64 24, ptr nonnull %5) #24
  store ptr %1, ptr %5, align 8, !tbaa !152
  %9 = getelementptr inbounds nuw i8, ptr %5, i64 8
  store i64 %2, ptr %9, align 8, !tbaa !155
  %10 = getelementptr inbounds nuw i8, ptr %5, i64 16
  store i64 %2, ptr %10, align 8, !tbaa !156
  call void @llvm.lifetime.start.p0(i64 56, ptr nonnull %6) #24
  store ptr %0, ptr %6, align 8, !tbaa !157
  %11 = getelementptr inbounds nuw i8, ptr %6, i64 8
  store ptr %5, ptr %11, align 8, !tbaa !160
  %12 = getelementptr inbounds nuw i8, ptr %6, i64 16
  %13 = getelementptr inbounds nuw i8, ptr %6, i64 32
  call void @llvm.memset.p0.i64(ptr noundef nonnull align 8 dereferenceable(16) %12, i8 0, i64 16, i1 false)
  store ptr @get_generation_from_graph_data, ptr %13, align 8, !tbaa !161
  %14 = getelementptr inbounds nuw i8, ptr %6, i64 40
  store ptr @set_generation_in_graph_data, ptr %14, align 8, !tbaa !162
  %15 = getelementptr inbounds nuw i8, ptr %6, i64 48
  store ptr null, ptr %15, align 8, !tbaa !163
  call fastcc void @compute_reachable_generation_numbers(ptr noundef %6, i32 noundef %8)
  call void @llvm.lifetime.end.p0(i64 56, ptr nonnull %6) #24
  call void @llvm.lifetime.end.p0(i64 24, ptr nonnull %5) #24
  ret void
}